target datalayout = "e-m:e-p270:32:32-p271:32:32-p272:64:64-i64:64-i128:128-f80:128-n8:16:32:64-S128"
target triple = "x86_64-pc-linux-gnu"

%class.scoped_ptr = type { ptr }

; Function Attrs: mustprogress uwtable
define linkonce_odr hidden void @_Z7deallocI19ast_printer_contextEvPT_(ptr noundef %0) #4 comdat {
  %2 = alloca ptr, align 8
  store ptr %0, ptr %2, align 8, !tbaa !68
  %3 = load ptr, ptr %2, align 8, !tbaa !68
  %4 = icmp eq ptr %3, null
  br i1 %4, label %5, label %6

5:                                                ; preds = %1
  br label %12

6:                                                ; preds = %1
  %7 = load ptr, ptr %2, align 8, !tbaa !68
  %8 = load ptr, ptr %7, align 8, !tbaa !70
  %9 = getelementptr inbounds ptr, ptr %8, i64 0
  %10 = load ptr, ptr %9, align 8
  call void %10(ptr noundef nonnull align 8 dereferenceable(8) %7) #3
  %11 = load ptr, ptr %2, align 8, !tbaa !68
  call void @_ZN6memory10deallocateEPv(ptr noundef %11)
  br label %12

12:                                               ; preds = %6, %5
  ret void
}

; Function Attrs: mustprogress nounwind uwtable
define linkonce_odr hidden noundef ptr @_ZNK10scoped_ptrI19ast_printer_contextE3getEv(ptr noundef nonnull align 8 dereferenceable(8) %0) #6 comdat align 2 {
  %2 = alloca ptr, align 8
  store ptr %0, ptr %2, align 8, !tbaa !99
  %3 = load ptr, ptr %2, align 8
  %4 = getelementptr inbounds nuw %class.scoped_ptr, ptr %3, i32 0, i32 0
  %5 = load ptr, ptr %4, align 8, !tbaa !101
  ret ptr %5
}

; Function Attrs: mustprogress uwtable
define linkonce_odr hidden noundef nonnull align 8 dereferenceable(8) ptr @_ZN10scoped_ptrI19ast_printer_contextEaSEPS0_(ptr noundef nonnull align 8 dereferenceable(8) %0, ptr noundef %1) #4 comdat align 2 {
  %3 = alloca ptr, align 8
  %4 = alloca ptr, align 8
  store ptr %0, ptr %3, align 8, !tbaa !99
  store ptr %1, ptr %4, align 8, !tbaa !68
  %5 = load ptr, ptr %3, align 8
  %6 = getelementptr inbounds nuw %class.scoped_ptr, ptr %5, i32 0, i32 0
  %7 = load ptr, ptr %6, align 8, !tbaa !101
  %8 = load ptr, ptr %4, align 8, !tbaa !68
  %9 = icmp ne ptr %7, %8
  br i1 %9, label %10, label %15

10:                                               ; preds = %2
  %11 = getelementptr inbounds nuw %class.scoped_ptr, ptr %5, i32 0, i32 0
  %12 = load ptr, ptr %11, align 8, !tbaa !101
  call void @_Z7deallocI19ast_printer_contextEvPT_(ptr noundef %12)
  %13 = load ptr, ptr %4, align 8, !tbaa !68
  %14 = getelementptr inbounds nuw %class.scoped_ptr, ptr %5, i32 0, i32 0
  store ptr %13, ptr %14, align 8, !tbaa !101
  br label %15

15:                                               ; preds = %10, %2
  ret ptr %5
}

; Function Attrs: mustprogress nounwind uwtable
define linkonce_odr hidden void @_ZN10scoped_ptrI19ast_printer_contextEC2EPS0_(ptr noundef nonnull align 8 dereferenceable(8) %0, ptr noundef %1) unnamed_addr #6 comdat align 2 {
  %3 = alloca ptr, align 8
  %4 = alloca ptr, align 8
  store ptr %0, ptr %3, align 8, !tbaa !99
  store ptr %1, ptr %4, align 8, !tbaa !68
  %5 = load ptr, ptr %3, align 8
  %6 = getelementptr inbounds nuw %class.scoped_ptr, ptr %5, i32 0, i32 0
  %7 = load ptr, ptr %4, align 8, !tbaa !68
  store ptr %7, ptr %6, align 8, !tbaa !101
  ret void
}

; Function Attrs: mustprogress uwtable
define hidden void @_Z13model_smt2_ppRSoR11ast_managerRK10model_corej(ptr noundef nonnull align 8 dereferenceable(8) %0, ptr noundef nonnull align 8 dereferenceable(976) %1, ptr noundef nonnull align 8 dereferenceable(96) %2, i32 noundef %3) #4 personality ptr @__gxx_personality_v0 {
  %5 = alloca ptr, align 8
  %6 = alloca ptr, align 8
  %7 = alloca ptr, align 8
  %8 = alloca i32, align 4
  %9 = alloca %class.scoped_ptr, align 8
  %10 = alloca ptr, align 8
  %11 = alloca i32, align 4
  store ptr %0, ptr %5, align 8, !tbaa !66
  store ptr %1, ptr %6, align 8, !tbaa !3
  store ptr %2, ptr %7, align 8, !tbaa !8
  store i32 %3, ptr %8, align 4, !tbaa !12
  call void @llvm.lifetime.start.p0(i64 8, ptr %9) #3
  call void @_ZN10scoped_ptrI19ast_printer_contextEC2EPS0_(ptr noundef nonnull align 8 dereferenceable(8) %9, ptr noundef null)
  %12 = load ptr, ptr %6, align 8, !tbaa !3
  %13 = invoke noundef ptr @_Z29mk_simple_ast_printer_contextR11ast_manager(ptr noundef nonnull align 8 dereferenceable(976) %12)
          to label %14 unwind label %35

14:                                               ; preds = %4
  %15 = invoke noundef nonnull align 8 dereferenceable(8) ptr @_ZN10scoped_ptrI19ast_printer_contextEaSEPS0_(ptr noundef nonnull align 8 dereferenceable(8) %9, ptr noundef %13)
          to label %16 unwind label %35

16:                                               ; preds = %14
  %17 = load ptr, ptr %5, align 8, !tbaa !66
  %18 = invoke noundef ptr @_ZNK10scoped_ptrI19ast_printer_contextE3getEv(ptr noundef nonnull align 8 dereferenceable(8) %9)
          to label %19 unwind label %35

19:                                               ; preds = %16
  %20 = load ptr, ptr %7, align 8, !tbaa !8
  %21 = load i32, ptr %8, align 4, !tbaa !12
  invoke void @_ZL17pp_uninterp_sortsRSoR19ast_printer_contextRK10model_corej(ptr noundef nonnull align 8 dereferenceable(8) %17, ptr noundef nonnull align 8 dereferenceable(8) %18, ptr noundef nonnull align 8 dereferenceable(96) %20, i32 noundef %21)
          to label %22 unwind label %35

22:                                               ; preds = %19
  %23 = load ptr, ptr %5, align 8, !tbaa !66
  %24 = invoke noundef ptr @_ZNK10scoped_ptrI19ast_printer_contextE3getEv(ptr noundef nonnull align 8 dereferenceable(8) %9)
          to label %25 unwind label %35

25:                                               ; preds = %22
  %26 = load ptr, ptr %7, align 8, !tbaa !8
  %27 = load i32, ptr %8, align 4, !tbaa !12
  invoke void @_ZL9pp_constsRSoR19ast_printer_contextRK10model_corej(ptr noundef nonnull align 8 dereferenceable(8) %23, ptr noundef nonnull align 8 dereferenceable(8) %24, ptr noundef nonnull align 8 dereferenceable(96) %26, i32 noundef %27)
          to label %28 unwind label %35

28:                                               ; preds = %25
  %29 = load ptr, ptr %5, align 8, !tbaa !66
  %30 = invoke noundef ptr @_ZNK10scoped_ptrI19ast_printer_contextE3getEv(ptr noundef nonnull align 8 dereferenceable(8) %9)
          to label %31 unwind label %35

31:                                               ; preds = %28
  %32 = load ptr, ptr %7, align 8, !tbaa !8
  %33 = load i32, ptr %8, align 4, !tbaa !12
  invoke void @_ZL7pp_funsRSoR19ast_printer_contextRK10model_corej(ptr noundef nonnull align 8 dereferenceable(8) %29, ptr noundef nonnull align 8 dereferenceable(8) %30, ptr noundef nonnull align 8 dereferenceable(96) %32, i32 noundef %33)
          to label %34 unwind label %35

34:                                               ; preds = %31
  call void @_ZN10scoped_ptrI19ast_printer_contextED2Ev(ptr noundef nonnull align 8 dereferenceable(8) %9) #3
  call void @llvm.lifetime.end.p0(i64 8, ptr %9) #3
  ret void

35:                                               ; preds = %31, %28, %25, %22, %19, %16, %14, %4
  %36 = landingpad { ptr, i32 }
          cleanup
  %37 = extractvalue { ptr, i32 } %36, 0
  store ptr %37, ptr %10, align 8
  %38 = extractvalue { ptr, i32 } %36, 1
  store i32 %38, ptr %11, align 4
  call void @_ZN10scoped_ptrI19ast_printer_contextED2Ev(ptr noundef nonnull align 8 dereferenceable(8) %9) #3
  call void @llvm.lifetime.end.p0(i64 8, ptr %9) #3
  br label %39

39:                                               ; preds = %35
  %40 = load ptr, ptr %10, align 8
  %41 = load i32, ptr %11, align 4
  %42 = insertvalue { ptr, i32 } poison, ptr %40, 0
  %43 = insertvalue { ptr, i32 } %42, i32 %41, 1
  resume { ptr, i32 } %43
}