; Function Attrs: mustprogress uwtable
define hidden void @_Z13model_smt2_ppRSoR11ast_managerRK10model_corej(ptr noundef nonnull align 8 dereferenceable(8) %0, ptr noundef nonnull align 8 dereferenceable(976) %1, ptr noundef nonnull align 8 dereferenceable(96) %2, i32 noundef %3) local_unnamed_addr #3 personality ptr @__gxx_personality_v0 {
  %5 = alloca %class.scoped_ptr, align 8
  call void @llvm.lifetime.start.p0(i64 8, ptr nonnull %5) #20
  store ptr null, ptr %5, align 8, !tbaa !235
  %6 = invoke noundef ptr @_Z29mk_simple_ast_printer_contextR11ast_manager(ptr noundef nonnull align 8 dereferenceable(976) %1)
          to label %7 unwind label %16

7:                                                ; preds = %4
  %.not.i = icmp eq ptr %6, null
  br i1 %.not.i, label %_ZN10scoped_ptrI19ast_printer_contextEaSEPS0_.exit, label %_Z7deallocI19ast_printer_contextEvPT_.exit.i

_Z7deallocI19ast_printer_contextEvPT_.exit.i:     ; preds = %7
  store ptr %6, ptr %5, align 8, !tbaa !235
  br label %_ZN10scoped_ptrI19ast_printer_contextEaSEPS0_.exit

_ZN10scoped_ptrI19ast_printer_contextEaSEPS0_.exit: ; preds = %_Z7deallocI19ast_printer_contextEvPT_.exit.i, %7
  invoke fastcc void @_ZL17pp_uninterp_sortsRSoR19ast_printer_contextRK10model_corej(ptr noundef nonnull align 8 dereferenceable(8) %0, ptr noundef nonnull align 8 dereferenceable(8) %6, ptr noundef nonnull align 8 dereferenceable(96) %2, i32 noundef %3)
          to label %8 unwind label %16

8:                                                ; preds = %_ZN10scoped_ptrI19ast_printer_contextEaSEPS0_.exit
  invoke fastcc void @_ZL9pp_constsRSoR19ast_printer_contextRK10model_corej(ptr noundef nonnull align 8 dereferenceable(8) %0, ptr noundef nonnull align 8 dereferenceable(8) %6, ptr noundef nonnull align 8 dereferenceable(96) %2, i32 noundef %3)
          to label %9 unwind label %16

9:                                                ; preds = %8
  invoke fastcc void @_ZL7pp_funsRSoR19ast_printer_contextRK10model_corej(ptr noundef nonnull align 8 dereferenceable(8) %0, ptr noundef nonnull align 8 dereferenceable(8) %6, ptr noundef nonnull align 8 dereferenceable(96) %2, i32 noundef %3)
          to label %10 unwind label %16

10:                                               ; preds = %9
  %11 = load ptr, ptr %6, align 8, !tbaa !64
  %12 = load ptr, ptr %11, align 8
  tail call void %12(ptr noundef nonnull align 8 dereferenceable(8) %6) #20
  invoke void @_ZN6memory10deallocateEPv(ptr noundef nonnull %6)
          to label %_ZN10scoped_ptrI19ast_printer_contextED2Ev.exit unwind label %13

13:                                               ; preds = %10
  %14 = landingpad { ptr, i32 }
          catch ptr null
  %15 = extractvalue { ptr, i32 } %14, 0
  tail call void @__clang_call_terminate(ptr %15) #21
  unreachable

_ZN10scoped_ptrI19ast_printer_contextED2Ev.exit:  ; preds = %10
  call void @llvm.lifetime.end.p0(i64 8, ptr nonnull %5) #20
  ret void

16:                                               ; preds = %9, %8, %_ZN10scoped_ptrI19ast_printer_contextEaSEPS0_.exit, %4
  %17 = landingpad { ptr, i32 }
          cleanup
  call void @_ZN10scoped_ptrI19ast_printer_contextED2Ev(ptr noundef nonnull align 8 dereferenceable(8) %5) #20
  call void @llvm.lifetime.end.p0(i64 8, ptr nonnull %5) #20
  resume { ptr, i32 } %17
}